target datalayout = "e-m:e-p270:32:32-p271:32:32-p272:64:64-i64:64-i128:128-f80:128-n8:16:32:64-S128"
target triple = "x86_64-pc-linux-gnu"

%"class.cvc5::internal::FatalStream" = type { i8 }

@__PRETTY_FUNCTION__._ZN4cvc58internal6theory5arith2nl3icp9ICPSolver5resetERKSt6vectorINS0_12NodeTemplateILb1EEESaIS8_EE = private unnamed_addr constant [89 x i8] c"void cvc5::internal::theory::arith::nl::icp::ICPSolver::reset(const std::vector<Node> &)\00", align 1
@.str = private unnamed_addr constant [126 x i8] c"generated/home/dtcxzyw/WorkSpace/Projects/compilers/llvm-opt-benchmark/bench/cvc5/cvc5/src/theory/arith/nl/icp/icp_solver.cpp\00", align 1
@.str.1 = private unnamed_addr constant [32 x i8] c"Unimplemented code encountered \00", align 1
@.str.2 = private unnamed_addr constant [54 x i8] c"ICPSolver requires cvc5 to be configured with LibPoly\00", align 1

; Function Attrs: mustprogress uwtable
define hidden void @_ZN4cvc58internal6theory5arith2nl3icp9ICPSolver5resetERKSt6vectorINS0_12NodeTemplateILb1EEESaIS8_EE(ptr noundef nonnull align 8 dereferenceable(16) %0, ptr noundef nonnull align 1 %1) #4 align 2 personality ptr @__gxx_personality_v0 {
  %3 = alloca ptr, align 8
  %4 = alloca ptr, align 8
  %5 = alloca %"class.cvc5::internal::FatalStream", align 1
  %6 = alloca ptr, align 8
  %7 = alloca i32, align 4
  store ptr %0, ptr %3, align 8, !tbaa !3
  store ptr %1, ptr %4, align 8, !tbaa !8
  call void @llvm.lifetime.start.p0(i64 1, ptr %5) #3
  call void @_ZN4cvc58internal11FatalStreamC1EPKcS3_i(ptr noundef nonnull align 1 dereferenceable(1) %5, ptr noundef @__PRETTY_FUNCTION__._ZN4cvc58internal6theory5arith2nl3icp9ICPSolver5resetERKSt6vectorINS0_12NodeTemplateILb1EEESaIS8_EE, ptr noundef @.str, i32 noundef 375)
  %8 = invoke noundef nonnull align 8 dereferenceable(8) ptr @_ZN4cvc58internal11FatalStream6streamEv(ptr noundef nonnull align 1 dereferenceable(1) %5)
          to label %9 unwind label %14

9:                                                ; preds = %2
  %10 = invoke noundef nonnull align 8 dereferenceable(8) ptr @_ZStlsISt11char_traitsIcEERSt13basic_ostreamIcT_ES5_PKc(ptr noundef nonnull align 8 dereferenceable(8) %8, ptr noundef @.str.1)
          to label %11 unwind label %14

11:                                               ; preds = %9
  %12 = invoke noundef nonnull align 8 dereferenceable(8) ptr @_ZStlsISt11char_traitsIcEERSt13basic_ostreamIcT_ES5_PKc(ptr noundef nonnull align 8 dereferenceable(8) %10, ptr noundef @.str.2)
          to label %13 unwind label %14

13:                                               ; preds = %11
  call void @_ZN4cvc58internal11FatalStreamD1Ev(ptr noundef nonnull align 1 dereferenceable(1) %5) #14
  unreachable

14:                                               ; preds = %11, %9, %2
  %15 = landingpad { ptr, i32 }
          cleanup
  %16 = extractvalue { ptr, i32 } %15, 0
  store ptr %16, ptr %6, align 8
  %17 = extractvalue { ptr, i32 } %15, 1
  store i32 %17, ptr %7, align 4
  call void @_ZN4cvc58internal11FatalStreamD1Ev(ptr noundef nonnull align 1 dereferenceable(1) %5) #14
  unreachable

18:                                               ; No predecessors!
  call void @llvm.lifetime.end.p0(i64 1, ptr %5) #3
  br label %19

19:                                               ; preds = %18
  %20 = load ptr, ptr %6, align 8
  %21 = load i32, ptr %7, align 4
  %22 = insertvalue { ptr, i32 } poison, ptr %20, 0
  %23 = insertvalue { ptr, i32 } %22, i32 %21, 1
  resume { ptr, i32 } %23
}